target datalayout = "e-m:e-p270:32:32-p271:32:32-p272:64:64-i64:64-i128:128-f80:128-n8:16:32:64-S128"
target triple = "x86_64-pc-linux-gnu"

%struct.DdNode = type { i32, i32, ptr, %union.anon, i64 }
%union.anon = type { %struct.DdChildren }
%struct.DdChildren = type { ptr, ptr }
%struct.DdManager = type { %struct.DdNode, ptr, ptr, ptr, ptr, ptr, ptr, ptr, i32, i32, double, double, double, i32, i32, i32, i32, i32, i32, ptr, ptr, %struct.DdSubtable, i32, i32, i32, i32, i32, i32, i32, double, i32, i32, i32, ptr, i64, double, i32, ptr, ptr, ptr, ptr, ptr, ptr, ptr, i32, ptr, ptr, ptr, ptr, ptr, ptr, i32, i32, i32, double, i32, i32, i32, i32, double, double, i32, i32, i32, i32, i32, i32, i32, i32, i32, ptr, ptr, i32, i32, i32, i32, i32, i32, ptr, ptr, ptr, ptr, ptr, ptr, ptr, ptr, i32, i64, i64, i64, i32, i64, i64, double, double, double, double, double, double, i32, ptr, ptr, i64 }
%struct.DdSubtable = type { ptr, i32, i32, i32, i32, i32, i32, i32, i32, i32, i32, i32 }

; Function Attrs: nounwind uwtable
define internal ptr @addBddDoIthBit(ptr noundef %0, ptr noundef %1, ptr noundef %2) #0 {
  %4 = alloca ptr, align 8
  %5 = alloca ptr, align 8
  %6 = alloca ptr, align 8
  %7 = alloca ptr, align 8
  %8 = alloca ptr, align 8
  %9 = alloca ptr, align 8
  %10 = alloca ptr, align 8
  %11 = alloca ptr, align 8
  %12 = alloca ptr, align 8
  %13 = alloca i32, align 4
  %14 = alloca i32, align 4
  %15 = alloca i32, align 4
  %16 = alloca i32, align 4
  store ptr %0, ptr %5, align 8, !tbaa !3
  store ptr %1, ptr %6, align 8, !tbaa !8
  store ptr %2, ptr %7, align 8, !tbaa !8
  call void @llvm.lifetime.start.p0(i64 8, ptr %8) #5
  call void @llvm.lifetime.start.p0(i64 8, ptr %9) #5
  call void @llvm.lifetime.start.p0(i64 8, ptr %10) #5
  call void @llvm.lifetime.start.p0(i64 8, ptr %11) #5
  call void @llvm.lifetime.start.p0(i64 8, ptr %12) #5
  call void @llvm.lifetime.start.p0(i64 4, ptr %13) #5
  call void @llvm.lifetime.start.p0(i64 4, ptr %14) #5
  call void @llvm.lifetime.start.p0(i64 4, ptr %15) #5
  %17 = load ptr, ptr %6, align 8, !tbaa !8
  %18 = getelementptr inbounds nuw %struct.DdNode, ptr %17, i32 0, i32 0
  %19 = load i32, ptr %18, align 8, !tbaa !31
  %20 = icmp eq i32 %19, 2147483647
  br i1 %20, label %21, label %43

21:                                               ; preds = %3
  %22 = load ptr, ptr %7, align 8, !tbaa !8
  %23 = getelementptr inbounds nuw %struct.DdNode, ptr %22, i32 0, i32 3
  %24 = load double, ptr %23, align 8, !tbaa !33
  %25 = fptosi double %24 to i32
  %26 = shl i32 1, %25
  store i32 %26, ptr %13, align 4, !tbaa !34
  %27 = load ptr, ptr %6, align 8, !tbaa !8
  %28 = getelementptr inbounds nuw %struct.DdNode, ptr %27, i32 0, i32 3
  %29 = load double, ptr %28, align 8, !tbaa !33
  %30 = fptosi double %29 to i32
  store i32 %30, ptr %14, align 4, !tbaa !34
  %31 = load ptr, ptr %5, align 8, !tbaa !3
  %32 = getelementptr inbounds nuw %struct.DdManager, ptr %31, i32 0, i32 1
  %33 = load ptr, ptr %32, align 8, !tbaa !32
  %34 = ptrtoint ptr %33 to i64
  %35 = load i32, ptr %14, align 4, !tbaa !34
  %36 = load i32, ptr %13, align 4, !tbaa !34
  %37 = and i32 %35, %36
  %38 = icmp eq i32 %37, 0
  %39 = zext i1 %38 to i32
  %40 = sext i32 %39 to i64
  %41 = xor i64 %34, %40
  %42 = inttoptr i64 %41 to ptr
  store ptr %42, ptr %4, align 8
  store i32 1, ptr %16, align 4
  br label %178

43:                                               ; preds = %3
  %44 = load ptr, ptr %5, align 8, !tbaa !3
  %45 = load ptr, ptr %6, align 8, !tbaa !8
  %46 = load ptr, ptr %7, align 8, !tbaa !8
  %47 = call ptr @cuddCacheLookup2(ptr noundef %44, ptr noundef @addBddDoIthBit, ptr noundef %45, ptr noundef %46)
  store ptr %47, ptr %8, align 8, !tbaa !8
  %48 = load ptr, ptr %8, align 8, !tbaa !8
  %49 = icmp ne ptr %48, null
  br i1 %49, label %50, label %52

50:                                               ; preds = %43
  %51 = load ptr, ptr %8, align 8, !tbaa !8
  store ptr %51, ptr %4, align 8
  store i32 1, ptr %16, align 4
  br label %178

52:                                               ; preds = %43
  %53 = load ptr, ptr %6, align 8, !tbaa !8
  %54 = getelementptr inbounds nuw %struct.DdNode, ptr %53, i32 0, i32 0
  %55 = load i32, ptr %54, align 8, !tbaa !31
  store i32 %55, ptr %15, align 4, !tbaa !34
  %56 = load ptr, ptr %6, align 8, !tbaa !8
  %57 = getelementptr inbounds nuw %struct.DdNode, ptr %56, i32 0, i32 3
  %58 = getelementptr inbounds nuw %struct.DdChildren, ptr %57, i32 0, i32 0
  %59 = load ptr, ptr %58, align 8, !tbaa !33
  store ptr %59, ptr %11, align 8, !tbaa !8
  %60 = load ptr, ptr %6, align 8, !tbaa !8
  %61 = getelementptr inbounds nuw %struct.DdNode, ptr %60, i32 0, i32 3
  %62 = getelementptr inbounds nuw %struct.DdChildren, ptr %61, i32 0, i32 1
  %63 = load ptr, ptr %62, align 8, !tbaa !33
  store ptr %63, ptr %12, align 8, !tbaa !8
  %64 = load ptr, ptr %5, align 8, !tbaa !3
  %65 = load ptr, ptr %11, align 8, !tbaa !8
  %66 = load ptr, ptr %7, align 8, !tbaa !8
  %67 = call ptr @addBddDoIthBit(ptr noundef %64, ptr noundef %65, ptr noundef %66)
  store ptr %67, ptr %9, align 8, !tbaa !8
  %68 = load ptr, ptr %9, align 8, !tbaa !8
  %69 = icmp eq ptr %68, null
  br i1 %69, label %70, label %71

70:                                               ; preds = %52
  store ptr null, ptr %4, align 8
  store i32 1, ptr %16, align 4
  br label %178

71:                                               ; preds = %52
  %72 = load ptr, ptr %9, align 8, !tbaa !8
  %73 = ptrtoint ptr %72 to i64
  %74 = and i64 %73, -2
  %75 = inttoptr i64 %74 to ptr
  %76 = getelementptr inbounds nuw %struct.DdNode, ptr %75, i32 0, i32 1
  %77 = load i32, ptr %76, align 4, !tbaa !12
  %78 = add i32 %77, 1
  store i32 %78, ptr %76, align 4, !tbaa !12
  %79 = load ptr, ptr %5, align 8, !tbaa !3
  %80 = load ptr, ptr %12, align 8, !tbaa !8
  %81 = load ptr, ptr %7, align 8, !tbaa !8
  %82 = call ptr @addBddDoIthBit(ptr noundef %79, ptr noundef %80, ptr noundef %81)
  store ptr %82, ptr %10, align 8, !tbaa !8
  %83 = load ptr, ptr %10, align 8, !tbaa !8
  %84 = icmp eq ptr %83, null
  br i1 %84, label %85, label %88

85:                                               ; preds = %71
  %86 = load ptr, ptr %5, align 8, !tbaa !3
  %87 = load ptr, ptr %9, align 8, !tbaa !8
  call void @Cudd_RecursiveDeref(ptr noundef %86, ptr noundef %87)
  store ptr null, ptr %4, align 8
  store i32 1, ptr %16, align 4
  br label %178

88:                                               ; preds = %71
  %89 = load ptr, ptr %10, align 8, !tbaa !8
  %90 = ptrtoint ptr %89 to i64
  %91 = and i64 %90, -2
  %92 = inttoptr i64 %91 to ptr
  %93 = getelementptr inbounds nuw %struct.DdNode, ptr %92, i32 0, i32 1
  %94 = load i32, ptr %93, align 4, !tbaa !12
  %95 = add i32 %94, 1
  store i32 %95, ptr %93, align 4, !tbaa !12
  %96 = load ptr, ptr %9, align 8, !tbaa !8
  %97 = ptrtoint ptr %96 to i64
  %98 = and i64 %97, 1
  %99 = trunc i64 %98 to i32
  %100 = icmp ne i32 %99, 0
  br i1 %100, label %101, label %136

101:                                              ; preds = %88
  %102 = load ptr, ptr %9, align 8, !tbaa !8
  %103 = load ptr, ptr %10, align 8, !tbaa !8
  %104 = icmp eq ptr %102, %103
  br i1 %104, label %105, label %110

105:                                              ; preds = %101
  %106 = load ptr, ptr %9, align 8, !tbaa !8
  %107 = ptrtoint ptr %106 to i64
  %108 = xor i64 %107, 1
  %109 = inttoptr i64 %108 to ptr
  br label %122

110:                                              ; preds = %101
  %111 = load ptr, ptr %5, align 8, !tbaa !3
  %112 = load i32, ptr %15, align 4, !tbaa !34
  %113 = load ptr, ptr %9, align 8, !tbaa !8
  %114 = ptrtoint ptr %113 to i64
  %115 = xor i64 %114, 1
  %116 = inttoptr i64 %115 to ptr
  %117 = load ptr, ptr %10, align 8, !tbaa !8
  %118 = ptrtoint ptr %117 to i64
  %119 = xor i64 %118, 1
  %120 = inttoptr i64 %119 to ptr
  %121 = call ptr @cuddUniqueInter(ptr noundef %111, i32 noundef %112, ptr noundef %116, ptr noundef %120)
  br label %122

122:                                              ; preds = %110, %105
  %123 = phi ptr [ %109, %105 ], [ %121, %110 ]
  store ptr %123, ptr %8, align 8, !tbaa !8
  %124 = load ptr, ptr %8, align 8, !tbaa !8
  %125 = icmp eq ptr %124, null
  br i1 %125, label %126, label %131

126:                                              ; preds = %122
  %127 = load ptr, ptr %5, align 8, !tbaa !3
  %128 = load ptr, ptr %9, align 8, !tbaa !8
  call void @Cudd_RecursiveDeref(ptr noundef %127, ptr noundef %128)
  %129 = load ptr, ptr %5, align 8, !tbaa !3
  %130 = load ptr, ptr %10, align 8, !tbaa !8
  call void @Cudd_RecursiveDeref(ptr noundef %129, ptr noundef %130)
  store ptr null, ptr %4, align 8
  store i32 1, ptr %16, align 4
  br label %178

131:                                              ; preds = %122
  %132 = load ptr, ptr %8, align 8, !tbaa !8
  %133 = ptrtoint ptr %132 to i64
  %134 = xor i64 %133, 1
  %135 = inttoptr i64 %134 to ptr
  store ptr %135, ptr %8, align 8, !tbaa !8
  br label %158

136:                                              ; preds = %88
  %137 = load ptr, ptr %9, align 8, !tbaa !8
  %138 = load ptr, ptr %10, align 8, !tbaa !8
  %139 = icmp eq ptr %137, %138
  br i1 %139, label %140, label %142

140:                                              ; preds = %136
  %141 = load ptr, ptr %9, align 8, !tbaa !8
  br label %148

142:                                              ; preds = %136
  %143 = load ptr, ptr %5, align 8, !tbaa !3
  %144 = load i32, ptr %15, align 4, !tbaa !34
  %145 = load ptr, ptr %9, align 8, !tbaa !8
  %146 = load ptr, ptr %10, align 8, !tbaa !8
  %147 = call ptr @cuddUniqueInter(ptr noundef %143, i32 noundef %144, ptr noundef %145, ptr noundef %146)
  br label %148

148:                                              ; preds = %142, %140
  %149 = phi ptr [ %141, %140 ], [ %147, %142 ]
  store ptr %149, ptr %8, align 8, !tbaa !8
  %150 = load ptr, ptr %8, align 8, !tbaa !8
  %151 = icmp eq ptr %150, null
  br i1 %151, label %152, label %157

152:                                              ; preds = %148
  %153 = load ptr, ptr %5, align 8, !tbaa !3
  %154 = load ptr, ptr %9, align 8, !tbaa !8
  call void @Cudd_RecursiveDeref(ptr noundef %153, ptr noundef %154)
  %155 = load ptr, ptr %5, align 8, !tbaa !3
  %156 = load ptr, ptr %10, align 8, !tbaa !8
  call void @Cudd_RecursiveDeref(ptr noundef %155, ptr noundef %156)
  store ptr null, ptr %4, align 8
  store i32 1, ptr %16, align 4
  br label %178

157:                                              ; preds = %148
  br label %158

158:                                              ; preds = %157, %131
  %159 = load ptr, ptr %9, align 8, !tbaa !8
  %160 = ptrtoint ptr %159 to i64
  %161 = and i64 %160, -2
  %162 = inttoptr i64 %161 to ptr
  %163 = getelementptr inbounds nuw %struct.DdNode, ptr %162, i32 0, i32 1
  %164 = load i32, ptr %163, align 4, !tbaa !12
  %165 = add i32 %164, -1
  store i32 %165, ptr %163, align 4, !tbaa !12
  %166 = load ptr, ptr %10, align 8, !tbaa !8
  %167 = ptrtoint ptr %166 to i64
  %168 = and i64 %167, -2
  %169 = inttoptr i64 %168 to ptr
  %170 = getelementptr inbounds nuw %struct.DdNode, ptr %169, i32 0, i32 1
  %171 = load i32, ptr %170, align 4, !tbaa !12
  %172 = add i32 %171, -1
  store i32 %172, ptr %170, align 4, !tbaa !12
  %173 = load ptr, ptr %5, align 8, !tbaa !3
  %174 = load ptr, ptr %6, align 8, !tbaa !8
  %175 = load ptr, ptr %7, align 8, !tbaa !8
  %176 = load ptr, ptr %8, align 8, !tbaa !8
  call void @cuddCacheInsert2(ptr noundef %173, ptr noundef @addBddDoIthBit, ptr noundef %174, ptr noundef %175, ptr noundef %176)
  %177 = load ptr, ptr %8, align 8, !tbaa !8
  store ptr %177, ptr %4, align 8
  store i32 1, ptr %16, align 4
  br label %178

178:                                              ; preds = %158, %152, %126, %85, %70, %50, %21
  call void @llvm.lifetime.end.p0(i64 4, ptr %15) #5
  call void @llvm.lifetime.end.p0(i64 4, ptr %14) #5
  call void @llvm.lifetime.end.p0(i64 4, ptr %13) #5
  call void @llvm.lifetime.end.p0(i64 8, ptr %12) #5
  call void @llvm.lifetime.end.p0(i64 8, ptr %11) #5
  call void @llvm.lifetime.end.p0(i64 8, ptr %10) #5
  call void @llvm.lifetime.end.p0(i64 8, ptr %9) #5
  call void @llvm.lifetime.end.p0(i64 8, ptr %8) #5
  %179 = load ptr, ptr %4, align 8
  ret ptr %179
}