; Function Attrs: nounwind uwtable
define internal ptr @addBddDoIthBit(ptr noundef %0, ptr noundef %1, ptr noundef %2) #0 {
  %4 = load i32, ptr %1, align 8, !tbaa !27
  %5 = icmp eq i32 %4, 2147483647
  br i1 %5, label %6, label %22

6:                                                ; preds = %3
  %7 = getelementptr inbounds nuw i8, ptr %2, i64 16
  %8 = load double, ptr %7, align 8, !tbaa !29
  %9 = fptosi double %8 to i32
  %10 = getelementptr inbounds nuw i8, ptr %1, i64 16
  %11 = load double, ptr %10, align 8, !tbaa !29
  %12 = fptosi double %11 to i32
  %13 = getelementptr inbounds nuw i8, ptr %0, i64 40
  %14 = load ptr, ptr %13, align 8, !tbaa !28
  %15 = ptrtoint ptr %14 to i64
  %16 = xor i32 %12, -1
  %17 = lshr i32 %16, %9
  %18 = and i32 %17, 1
  %19 = zext nneg i32 %18 to i64
  %20 = xor i64 %19, %15
  %21 = inttoptr i64 %20 to ptr
  br label %71

22:                                               ; preds = %3
  %23 = tail call ptr @cuddCacheLookup2(ptr noundef %0, ptr noundef nonnull @addBddDoIthBit, ptr noundef nonnull %1, ptr noundef %2) #4
  %.not = icmp eq ptr %23, null
  br i1 %.not, label %24, label %71

24:                                               ; preds = %22
  %25 = load i32, ptr %1, align 8, !tbaa !27
  %26 = getelementptr inbounds nuw i8, ptr %1, i64 16
  %27 = load ptr, ptr %26, align 8, !tbaa !29
  %28 = getelementptr inbounds nuw i8, ptr %1, i64 24
  %29 = load ptr, ptr %28, align 8, !tbaa !29
  %30 = tail call ptr @addBddDoIthBit(ptr noundef %0, ptr noundef %27, ptr noundef %2)
  %31 = icmp eq ptr %30, null
  br i1 %31, label %71, label %32

32:                                               ; preds = %24
  %33 = ptrtoint ptr %30 to i64
  %34 = and i64 %33, -2
  %35 = inttoptr i64 %34 to ptr
  %36 = getelementptr inbounds nuw i8, ptr %35, i64 4
  %37 = load i32, ptr %36, align 4, !tbaa !3
  %38 = add i32 %37, 1
  store i32 %38, ptr %36, align 4, !tbaa !3
  %39 = tail call ptr @addBddDoIthBit(ptr noundef %0, ptr noundef %29, ptr noundef %2)
  %40 = icmp eq ptr %39, null
  br i1 %40, label %41, label %42

41:                                               ; preds = %32
  tail call void @Cudd_RecursiveDeref(ptr noundef %0, ptr noundef nonnull %30) #4
  br label %71

42:                                               ; preds = %32
  %43 = ptrtoint ptr %39 to i64
  %44 = and i64 %43, -2
  %45 = inttoptr i64 %44 to ptr
  %46 = getelementptr inbounds nuw i8, ptr %45, i64 4
  %47 = load i32, ptr %46, align 4, !tbaa !3
  %48 = add i32 %47, 1
  store i32 %48, ptr %46, align 4, !tbaa !3
  %49 = and i64 %33, 1
  %.not65 = icmp eq i64 %49, 0
  %50 = icmp eq ptr %30, %39
  br i1 %.not65, label %62, label %51

51:                                               ; preds = %42
  br i1 %50, label %.thread, label %52

52:                                               ; preds = %51
  %53 = xor i64 %43, 1
  %54 = inttoptr i64 %53 to ptr
  %55 = tail call ptr @cuddUniqueInter(ptr noundef %0, i32 noundef %25, ptr noundef nonnull %35, ptr noundef %54) #4
  %56 = icmp eq ptr %55, null
  br i1 %56, label %57, label %.thread

57:                                               ; preds = %52
  tail call void @Cudd_RecursiveDeref(ptr noundef %0, ptr noundef nonnull %30) #4
  tail call void @Cudd_RecursiveDeref(ptr noundef %0, ptr noundef nonnull %39) #4
  br label %71

.thread:                                          ; preds = %51, %52
  %58 = phi ptr [ %55, %52 ], [ %35, %51 ]
  %59 = ptrtoint ptr %58 to i64
  %60 = xor i64 %59, 1
  %61 = inttoptr i64 %60 to ptr
  br label %.thread66

62:                                               ; preds = %42
  br i1 %50, label %.thread66, label %63

63:                                               ; preds = %62
  %64 = tail call ptr @cuddUniqueInter(ptr noundef %0, i32 noundef %25, ptr noundef nonnull %30, ptr noundef nonnull %39) #4
  %65 = icmp eq ptr %64, null
  br i1 %65, label %66, label %.thread66

66:                                               ; preds = %63
  tail call void @Cudd_RecursiveDeref(ptr noundef %0, ptr noundef nonnull %30) #4
  tail call void @Cudd_RecursiveDeref(ptr noundef %0, ptr noundef nonnull %39) #4
  br label %71

.thread66:                                        ; preds = %62, %63, %.thread
  %.059 = phi ptr [ %61, %.thread ], [ %64, %63 ], [ %30, %62 ]
  %67 = load i32, ptr %36, align 4, !tbaa !3
  %68 = add i32 %67, -1
  store i32 %68, ptr %36, align 4, !tbaa !3
  %69 = load i32, ptr %46, align 4, !tbaa !3
  %70 = add i32 %69, -1
  store i32 %70, ptr %46, align 4, !tbaa !3
  tail call void @cuddCacheInsert2(ptr noundef %0, ptr noundef nonnull @addBddDoIthBit, ptr noundef nonnull %1, ptr noundef %2, ptr noundef %.059) #4
  br label %71

71:                                               ; preds = %24, %22, %.thread66, %66, %57, %41, %6
  %.0 = phi ptr [ %21, %6 ], [ null, %41 ], [ null, %57 ], [ %.059, %.thread66 ], [ null, %66 ], [ %23, %22 ], [ null, %24 ]
  ret ptr %.0
}